(dp1
S'CMN_NW_001353_20150701_F00100024'
p2
S'1709'
p3
sS'CMN_DF_000191_20150111_F0010009W'
p4
S'3411'
p5
sS'CMN_NW_001312_20150223_F0010000C'
p6
S'1240'
p7
sS'CMN_NW_001344_20150615_F0010001P'
p8
S'909'
p9
sS'CMN_NW_001322_20150710_F0010000N'
p10
S'2609'
p11
sS'CMN_NW_001349_20150426_F0010001W'
p12
S'1422'
p13
sS'CMN_DF_000191_20150616_F001000A6'
p14
S'3366'
p15
sS'CMN_DF_000191_20150507_F0010009F'
p16
S'3810'
p17
sS'CMN_NW_001315_20150729_F0010000F'
p18
S'703'
p19
sS'CMN_DF_000311_20150427_F001000AG'
p20
S'3076'
p21
sS'CMN_DF_000191_20150427_F00100096'
p22
S'16586'
p23
sS'CMN_NW_001306_20150429_F00100001'
p24
S'1024'
p25
sS'CMN_NW_001306_20150429_F00100000'
p26
S'883'
p27
sS'CMN_DF_000304_20150429_F0010007C'
p28
S'3600'
p29
sS'CMN_NW_001337_20150617_F0010001D'
p30
S'2301'
p31
sS'CMN_DF_000311_20150625_F001000AP'
p32
S'1247'
p33
sS'CMN_NW_001319_20150622_F0010000K'
p34
S'1784'
p35
sS'CMN_DF_000020_20150426_F00100072'
p36
S'5050'
p37
sS'CMN_DF_000020_20150426_F00100077'
p38
S'1209'
p39
sS'CMN_DF_000191_20150614_F001000A3'
p40
S'921'
p41
sS'CMN_DF_000304_20150831_F0010007I'
p42
S'2809'
p43
sS'CMN_DF_000311_20150820_F001000AE'
p44
S'4188'
p45
sS'CMN_NW_001307_20150504_F00100002'
p46
S'785'
p47
sS'CMN_DF_000191_20150503_F00100097'
p48
S'5025'
p49
sS'CMN_DF_000191_20150617_F001000AA'
p50
S'4556'
p51
sS'CMN_DF_000191_20150709_F0010009K'
p52
S'4062'
p53
sS'CMN_NW_001358_20150813_F0010002A'
p54
S'563'
p55
sS'CMN_NW_001357_20150703_F00100029'
p56
S'1116'
p57
sS'CMN_DF_000020_20150428_F0010007B'
p58
S'2089'
p59
sS'CMN_NW_001324_20150714_F0010000P'
p60
S'1986'
p61
sS'CMN_NW_001326_20150619_F0010000T'
p62
S'1367'
p63
sS'CMN_NW_001186_20150430_F0010001X'
p64
S'622'
p65
sS'CMN_NW_001341_20150421_F0010001L'
p66
S'882'
p67
sS'CMN_DF_000191_20150112_F001000A1'
p68
S'6645'
p69
sS'CMN_DF_000191_20150619_F001000AD'
p70
S'3379'
p71
sS'CMN_DF_000311_20150110_F001000AS'
p72
S'3728'
p73
sS'CMN_NW_001319_20150627_F0010000X'
p74
S'869'
p75
sS'CMN_NW_001343_20150616_F0010001O'
p76
S'1777'
p77
sS'CMN_DF_000191_20150603_F0010009X'
p78
S'4399'
p79
sS'CMN_NW_001335_20150803_F00100019'
p80
S'860'
p81
sS'CMN_DF_000020_20150427_F0010007A'
p82
S'4242'
p83
sS'CMN_NW_001318_20150117_F0010000J'
p84
S'1026'
p85
sS'CMN_DF_000191_20150809_F0010009G'
p86
S'689'
p87
sS'CMN_DF_000191_20150628_F001000AB'
p88
S'2944'
p89
sS'CMN_DF_000311_20150708_F0010009T'
p90
S'5268'
p91
sS'CMN_DF_000191_20150606_F001000A2'
p92
S'1540'
p93
sS'CMN_DF_000311_20150630_F0010009R'
p94
S'2204'
p95
sS'CMN_DF_000191_20141004_F00100092'
p96
S'1823'
p97
sS'CMN_NW_001333_20150528_F00100016'
p98
S'1460'
p99
sS'CMN_DF_000191_20150108_F0010009V'
p100
S'14944'
p101
sS'CMN_NW_001311_20150325_F0010000A'
p102
S'882'
p103
sS'CMN_DF_000191_20150108_F0010009U'
p104
S'2561'
p105
sS'CMN_DF_000311_20150523_F001000AO'
p106
S'3062'
p107
sS'CMN_DF_000191_20150707_F0010009L'
p108
S'18615'
p109
sS'CMN_NW_001163_20150804_F0010000S'
p110
S'1313'
p111
sS'CMN_DF_000304_20150529_F0010007H'
p112
S'6233'
p113
sS'CMN_DF_000304_20150620_F0010007G'
p114
S'9574'
p115
sS'CMN_DF_000304_20150529_F0010007D'
p116
S'6148'
p117
sS'CMN_DF_000311_20150619_F001000AH'
p118
S'3616'
p119
sS'CMN_NW_001317_20150111_F0010002C'
p120
S'1303'
p121
sS'CMN_NW_001186_20150702_F00100027'
p122
S'677'
p123
sS'CMN_DF_000311_20150827_F001000A8'
p124
S'2228'
p125
sS'CMN_NW_001328_20150711_F0010000W'
p126
S'3027'
p127
sS'CMN_NW_001348_20150515_F0010001V'
p128
S'1093'
p129
sS'CMN_DF_000020_20150827_F00100073'
p130
S'4260'
p131
sS'CMN_DF_000311_20150409_F0010009P'
p132
S'12797'
p133
sS'CMN_NW_001310_20140428_F00100009'
p134
S'909'
p135
sS'CMN_NW_001342_20150615_F0010001M'
p136
S'1699'
p137
sS'CMN_DF_000191_20150615_F001000A4'
p138
S'3546'
p139
sS'CMN_DF_000191_20150703_F0010009M'
p140
S'2146'
p141
sS'CMN_NW_001312_20150112_F0010000B'
p142
S'1955'
p143
sS'CMN_DF_000020_20150108_F00100076'
p144
S'1249'
p145
sS'CMN_DF_000020_20150108_F00100074'
p146
S'3276'
p147
sS'CMN_NW_001339_20150721_F0010001H'
p148
S'1142'
p149
sS'CMN_DF_000311_20150627_F001000AQ'
p150
S'4656'
p151
sS'CMN_NW_001308_20150428_F00100005'
p152
S'1431'
p153
sS'CMN_NW_001340_20150325_F0010001J'
p154
S'2256'
p155
sS'CMN_DF_000311_20150507_F001000AN'
p156
S'6469'
p157
sS'CMN_NW_001322_20150626_F0010000Z'
p158
S'1404'
p159
sS'CMN_NW_001325_20150704_F0010000U'
p160
S'3629'
p161
sS'CMN_NW_001336_20150603_F0010001B'
p162
S'4656'
p163
sS'CMN_DF_000191_20150429_F001000A9'
p164
S'7238'
p165
sS'CMN_NW_000020_20150604_F00100013'
p166
S'1849'
p167
sS'CMN_NW_001347_20150429_F0010001S'
p168
S'1967'
p169
sS'CMN_NW_001356_20150701_F00100028'
p170
S'704'
p171
sS'CMN_NW_001341_20150730_F0010001K'
p172
S'2030'
p173
sS'CMN_DF_000311_20150713_F001000AR'
p174
S'4690'
p175
sS'CMN_NW_001321_20150607_F00100021'
p176
S'2404'
p177
sS'CMN_NW_001331_20150702_F00100023'
p178
S'686'
p179
sS'CMN_NW_001314_20150803_F0010000E'
p180
S'655'
p181
sS'CMN_NW_001351_20150626_F0010001Z'
p182
S'1120'
p183
sS'CMN_NW_001352_20150328_F0010000D'
p184
S'715'
p185
sS'CMN_NW_001325_20150108_F0010000Q'
p186
S'1294'
p187
sS'CMN_DF_000191_20150710_F0010009J'
p188
S'2243'
p189
sS'CMN_DF_000191_20150508_F00100098'
p190
S'19135'
p191
sS'CMN_DF_000191_20150428_F0010009B'
p192
S'6253'
p193
sS'CMN_DF_000311_20150502_F001000AM'
p194
S'5663'
p195
sS'CMN_DF_000304_20150603_F0010007E'
p196
S'9616'
p197
sS'CMN_DF_000191_20150228_F0010009E'
p198
S'4462'
p199
sS'CMN_DF_000020_20150627_F00100079'
p200
S'6291'
p201
sS'CMN_DF_000191_20150520_F001000A5'
p202
S'3979'
p203
sS'CMN_NW_001350_20150510_F0010001Y'
p204
S'4359'
p205
sS'CMN_DF_000311_20150723_F0010009Z'
p206
S'3513'
p207
sS'CMN_NW_001317_20150104_F0010000H'
p208
S'728'
p209
sS'CMN_NW_001330_20150714_F0010001C'
p210
S'702'
p211
sS'CMN_NW_001308_20150709_F00100004'
p212
S'579'
p213
sS'CMN_NW_001310_20150616_F0010001N'
p214
S'1354'
p215
sS'CMN_NW_001345_20150614_F0010001Q'
p216
S'759'
p217
sS'CMN_DF_000191_20150415_F00100095'
p218
S'2148'
p219
sS'CMN_DF_000311_20150625_F0010009Y'
p220
S'2666'
p221
sS'CMN_NW_001330_20150603_F00100011'
p222
S'2112'
p223
sS'CMN_DF_000191_20150131_F0010009D'
p224
S'12288'
p225
sS'CMN_DF_000311_20150310_F001000AI'
p226
S'4032'
p227
sS'CMN_DF_000311_20150821_F001000A7'
p228
S'6209'
p229
sS'CMN_NW_001320_20150624_F0010000Y'
p230
S'1230'
p231
sS'CMN_DF_000191_20150430_F0010009C'
p232
S'10929'
p233
sS'CMN_DF_000191_20150202_F00100094'
p234
S'6123'
p235
sS'CMN_NW_001184_20150107_F0010000R'
p236
S'811'
p237
sS'CMN_NW_001323_20150621_F0010000O'
p238
S'1473'
p239
sS'CMN_NW_001359_20150629_F0010002B'
p240
S'682'
p241
sS'CMN_NW_001314_20150616_F0010001U'
p242
S'1834'
p243
sS'CMN_NW_001354_20150628_F00100025'
p244
S'1087'
p245
sS'CMN_DF_000311_20150331_F001000AJ'
p246
S'1973'
p247
sS'CMN_NW_001352_20150603_F00100022'
p248
S'645'
p249
sS'CMN_DF_000191_20150706_F001000AC'
p250
S'8028'
p251
sS'CMN_DF_000311_20150412_F0010009Q'
p252
S'5199'
p253
sS'CMN_NW_001316_20150309_F0010000G'
p254
S'1516'
p255
sS'CMN_DF_000311_20150407_F0010009O'
p256
S'5938'
p257
sS'CMN_NW_001338_20150129_F0010001F'
p258
S'1534'
p259
sS'CMN_DF_000191_20150112_F0010009A'
p260
S'9327'
p261
sS'CMN_DF_000191_20150617_F0010009N'
p262
S'1489'
p263
sS'CMN_DF_000304_20150604_F0010007K'
p264
S'4162'
p265
sS'CMN_NW_001329_20150605_F00100010'
p266
S'1475'
p267
sS'CMN_NW_001332_20150531_F00100015'
p268
S'2211'
p269
sS'CMN_DF_000020_20150713_F00100078'
p270
S'1340'
p271
sS'CMN_NW_001334_20150612_F00100018'
p272
S'1826'
p273
sS'CMN_NW_001127_20150725_F00100014'
p274
S'841'
p275
sS'CMN_NW_001334_20150529_F00100017'
p276
S'717'
p277
sS'CMN_DF_000304_20150604_F0010007F'
p278
S'4201'
p279
sS'CMN_DF_000191_20150819_F0010009H'
p280
S'10965'
p281
sS'CMN_NW_001318_20150214_F0010000I'
p282
S'768'
p283
sS'CMN_NW_001347_20150616_F0010001T'
p284
S'4220'
p285
sS'CMN_DF_000311_20150419_F001000AK'
p286
S'2113'
p287
sS'CMN_DF_000191_20140825_F001000A0'
p288
S'4913'
p289
sS'CMN_NW_001335_20150722_F0010001A'
p290
S'1863'
p291
sS'CMN_DF_000311_20150707_F0010009S'
p292
S'456'
p293
sS'CMN_DF_000304_20150702_F0010007J'
p294
S'3845'
p295
sS'CMN_DF_000191_20141127_F00100093'
p296
S'3064'
p297
sS'CMN_NW_001331_20150615_F00100012'
p298
S'1138'
p299
sS'CMN_NW_001355_20150628_F00100026'
p300
S'1204'
p301
sS'CMN_NW_001340_20150706_F0010001I'
p302
S'2078'
p303
sS'CMN_DF_000020_20150428_F00100075'
p304
S'3487'
p305
sS'CMN_DF_000311_20150216_F001000AF'
p306
S'4093'
p307
sS'CMN_DF_000311_20150501_F001000AL'
p308
S'2501'
p309
sS'CMN_DF_000191_20141013_F00100099'
p310
S'7144'
p311
sS'CMN_NW_001191_20150428_F00100003'
p312
S'1050'
p313
sS'CMN_NW_001191_20150309_F00100008'
p314
S'1532'
p315
sS'CMN_NW_001320_20150618_F0010000L'
p316
S'1551'
p317
sS'CMN_NW_001309_20140428_F00100006'
p318
S'1089'
p319
sS'CMN_NW_001309_20140428_F00100007'
p320
S'894'
p321
sS'CMN_NW_001346_20150616_F0010001R'
p322
S'1891'
p323
sS'CMN_NW_001327_20150727_F0010000V'
p324
S'1199'
p325
sS'CMN_DF_000191_20150805_F0010009I'
p326
S'3793'
p327
sS'CMN_NW_001351_20150705_F00100020'
p328
S'861'
p329
sS'CMN_NW_001337_20150710_F0010001E'
p330
S'1140'
p331
sS'CMN_NW_001321_20150618_F0010000M'
p332
S'889'
p333
s.