(dp1
S'ENG_NW_001395_20150717_F00100058'
p2
S'4545'
p3
sS'ENG_DF_001230_20150107_F001000DZ'
p4
S'9620'
p5
sS'ENG_NW_001404_20150717_F0010005K'
p6
S'5555'
p7
sS'ENG_DF_001220_20150621_F00100088'
p8
S'18252'
p9
sS'ENG_NW_001426_20150624_F0010006E'
p10
S'5240'
p11
sS'ENG_DF_001206_20150601_F001000CP'
p12
S'11863'
p13
sS'ENG_DF_001483_20150626_F001000DU'
p14
S'22366'
p15
sS'ENG_NW_001418_20150428_F00100065'
p16
S'7671'
p17
sS'ENG_DF_000261_20150620_F0010008K'
p18
S'16957'
p19
sS'ENG_DF_001483_20150425_F001000DM'
p20
S'14565'
p21
sS'ENG_DF_001501_20150623_F0010008Y'
p22
S'3892'
p23
sS'ENG_DF_001497_20150713_F0010008L'
p24
S'4361'
p25
sS'ENG_NW_001391_20150716_F00100054'
p26
S'3313'
p27
sS'ENG_NW_001024_20150107_F0010005O'
p28
S'9442'
p29
sS'ENG_DF_000200_20150702_F001000DW'
p30
S'8781'
p31
sS'ENG_DF_000170_20150219_F0010008Z'
p32
S'9245'
p33
sS'ENG_NW_001422_20150628_F0010006A'
p34
S'6899'
p35
sS'ENG_NW_001435_20150718_F0010006O'
p36
S'4474'
p37
sS'ENG_NW_001030_20150715_F0010005Q'
p38
S'6264'
p39
sS'ENG_NW_001421_20150804_F00100069'
p40
S'5922'
p41
sS'ENG_DF_001484_20150630_F0010008N'
p42
S'12851'
p43
sS'ENG_DF_001473_20150527_F001000D4'
p44
S'12964'
p45
sS'ENG_DF_001468_20150710_F001000CR'
p46
S'18747'
p47
sS'ENG_NW_001402_20150109_F0010005I'
p48
S'8789'
p49
sS'ENG_NW_001414_20150428_F00100060'
p50
S'5581'
p51
sS'ENG_DF_001471_20150528_F001000D2'
p52
S'19264'
p53
sS'ENG_NW_001400_20150714_F0010005F'
p54
S'4359'
p55
sS'ENG_NW_001401_20150713_F0010005H'
p56
S'4385'
p57
sS'ENG_DF_000249_20150527_F001000D5'
p58
S'4710'
p59
sS'ENG_NW_001412_20150426_F0010005Y'
p60
S'1592'
p61
sS'ENG_NW_001416_20150716_F00100062'
p62
S'5402'
p63
sS'ENG_DF_001235_20150624_F0010008S'
p64
S'5157'
p65
sS'ENG_NW_001430_20150426_F0010006I'
p66
S'2710'
p67
sS'ENG_NW_001420_20150714_F00100068'
p68
S'3935'
p69
sS'ENG_DF_001485_20150624_F0010008W'
p70
S'7253'
p71
sS'ENG_NW_001378_20150424_F0010004R'
p72
S'3795'
p73
sS'ENG_NW_001400_20150707_F0010005G'
p74
S'8451'
p75
sS'ENG_NW_001383_20150801_F0010004W'
p76
S'8124'
p77
sS'ENG_NW_001001_20150719_F00100059'
p78
S'4825'
p79
sS'ENG_DF_001475_20150425_F001000D8'
p80
S'10075'
p81
sS'ENG_NW_001437_20150426_F0010006R'
p82
S'5785'
p83
sS'ENG_DF_001498_20150617_F0010008M'
p84
S'14859'
p85
sS'ENG_NW_001425_20150606_F0010006D'
p86
S'4563'
p87
sS'ENG_DF_001487_20150628_F001000DV'
p88
S'8388'
p89
sS'ENG_DF_001489_20150627_F00100086'
p90
S'9373'
p91
sS'ENG_NW_001403_20150718_F0010005J'
p92
S'4016'
p93
sS'ENG_DF_001474_20150527_F001000D7'
p94
S'9756'
p95
sS'ENG_NW_001423_20150107_F0010006B'
p96
S'5292'
p97
sS'ENG_DF_000355_20150619_F0010008I'
p98
S'5520'
p99
sS'ENG_NW_001390_20150627_F00100053'
p100
S'7416'
p101
sS'ENG_NW_001406_20150430_F0010005P'
p102
S'2097'
p103
sS'ENG_DF_000170_20150704_F001000CW'
p104
S'16058'
p105
sS'ENG_DF_001222_20150509_F001000DO'
p106
S'68433'
p107
sS'ENG_NW_001022_20150108_F0010005M'
p108
S'3725'
p109
sS'ENG_NW_001407_20150715_F0010005R'
p110
S'9898'
p111
sS'ENG_DF_001469_20150710_F001000CY'
p112
S'18133'
p113
sS'ENG_DF_001222_20150622_F001000DX'
p114
S'14524'
p115
sS'ENG_NW_001440_20150709_F0010006V'
p116
S'4905'
p117
sS'ENG_NW_001439_20150622_F0010006U'
p118
S'5121'
p119
sS'ENG_NW_001377_20150107_F0010004Q'
p120
S'6623'
p121
sS'ENG_NW_001427_20150718_F0010006F'
p122
S'8239'
p123
sS'ENG_DF_001493_20150107_F0010008D'
p124
S'4991'
p125
sS'ENG_NW_001436_20140731_F0010006P'
p126
S'16293'
p127
sS'ENG_NW_001431_20150426_F0010006J'
p128
S'2026'
p129
sS'ENG_NW_001384_20150705_F0010004X'
p130
S'6370'
p131
sS'ENG_DF_000380_20150624_F0010008G'
p132
S'12701'
p133
sS'ENG_DF_001490_20150709_F00100087'
p134
S'26819'
p135
sS'ENG_NW_001433_20150716_F0010006M'
p136
S'3954'
p137
sS'ENG_NW_001417_20150622_F00100071'
p138
S'9831'
p139
sS'ENG_NW_001462_20150618_F0010006X'
p140
S'3366'
p141
sS'ENG_DF_000355_20150504_F001000DH'
p142
S'15668'
p143
sS'ENG_DF_001491_20150427_F0010008A'
p144
S'10667'
p145
sS'ENG_DF_001485_20150702_F001000DS'
p146
S'5053'
p147
sS'ENG_DF_000300_20150601_F0010008V'
p148
S'8240'
p149
sS'ENG_NW_001413_20150715_F0010005Z'
p150
S'6423'
p151
sS'ENG_NW_001432_20150622_F0010006L'
p152
S'4231'
p153
sS'ENG_DF_001480_20150107_F001000DG'
p154
S'17852'
p155
sS'ENG_NW_001387_20150601_F0010004Z'
p156
S'4175'
p157
sS'ENG_DF_001477_20150709_F001000DA'
p158
S'6595'
p159
sS'ENG_NW_001397_20150628_F0010005B'
p160
S'4709'
p161
sS'ENG_DF_001466_20150714_F001000CM'
p162
S'6267'
p163
sS'ENG_DF_001206_20150709_F001000CO'
p164
S'10179'
p165
sS'ENG_NW_001441_20150428_F0010006W'
p166
S'1918'
p167
sS'ENG_DF_001478_20140226_F001000DB'
p168
S'15471'
p169
sS'ENG_DF_001486_20150629_F001000DT'
p170
S'11893'
p171
sS'ENG_NW_001411_20150626_F0010005X'
p172
S'6263'
p173
sS'ENG_NW_001380_20150511_F0010004T'
p174
S'2338'
p175
sS'ENG_DF_000380_20150715_F001000CS'
p176
S'20080'
p177
sS'ENG_NW_001463_20150413_F0010006Z'
p178
S'5914'
p179
sS'ENG_NW_001464_20150623_F00100070'
p180
S'5647'
p181
sS'ENG_DF_000300_20150426_F0010008U'
p182
S'8758'
p183
sS'ENG_NW_001382_20150619_F0010004V'
p184
S'11772'
p185
sS'ENG_DF_000379_20150604_F001000D1'
p186
S'20737'
p187
sS'ENG_DF_000170_20150505_F00100090'
p188
S'8543'
p189
sS'ENG_DF_001487_20150715_F0010008O'
p190
S'5485'
p191
sS'ENG_DF_001467_20150527_F001000CQ'
p192
S'14294'
p193
sS'ENG_DF_001230_20150715_F001000DD'
p194
S'5134'
p195
sS'ENG_DF_001466_20150529_F001000CL'
p196
S'8987'
p197
sS'ENG_NW_001429_20150622_F0010006H'
p198
S'2999'
p199
sS'ENG_NW_001410_20150611_F0010005U'
p200
S'11750'
p201
sS'ENG_NW_001389_20150713_F00100052'
p202
S'5222'
p203
sS'ENG_DF_001237_20150716_F0010008R'
p204
S'3250'
p205
sS'ENG_DF_000261_20150428_F00100089'
p206
S'13543'
p207
sS'ENG_NW_001424_20150208_F0010006C'
p208
S'6002'
p209
sS'ENG_DF_001479_20090727_F001000DE'
p210
S'10928'
p211
sS'ENG_DF_001481_20150708_F001000DJ'
p212
S'10031'
p213
sS'ENG_DF_001237_20150502_F0010008P'
p214
S'9054'
p215
sS'ENG_DF_001466_20150708_F001000DI'
p216
S'6752'
p217
sS'ENG_NW_001432_20150627_F0010006K'
p218
S'15759'
p219
sS'ENG_DF_000367_20150408_F001000CK'
p220
S'9155'
p221
sS'ENG_DF_001485_20150612_F001000E0'
p222
S'15995'
p223
sS'ENG_DF_000261_20150626_F001000DY'
p224
S'14770'
p225
sS'ENG_NW_001410_20150615_F0010005V'
p226
S'8883'
p227
sS'ENG_DF_001476_20150428_F001000D9'
p228
S'15698'
p229
sS'ENG_NW_001397_20150715_F0010005C'
p230
S'5127'
p231
sS'ENG_NW_001428_20150527_F0010006G'
p232
S'9076'
p233
sS'ENG_DF_001228_20150614_F001000DP'
p234
S'7696'
p235
sS'ENG_NW_001396_20150109_F0010005A'
p236
S'5931'
p237
sS'ENG_NW_001388_20150706_F00100051'
p238
S'6721'
p239
sS'ENG_DF_001488_20150107_F001000E1'
p240
S'19072'
p241
sS'ENG_NW_001399_20150719_F0010005E'
p242
S'19166'
p243
sS'ENG_DF_001496_20150709_F0010008H'
p244
S'15357'
p245
sS'ENG_DF_001202_20150707_F001000CV'
p246
S'7277'
p247
sS'ENG_DF_001222_20150602_F001000DL'
p248
S'31040'
p249
sS'ENG_DF_001495_20150204_F0010008F'
p250
S'31994'
p251
sS'ENG_DF_000380_20150606_F001000D0'
p252
S'4267'
p253
sS'ENG_DF_001500_20150107_F0010008X'
p254
S'11786'
p255
sS'ENG_NW_001404_20150502_F0010005L'
p256
S'3034'
p257
sS'ENG_NW_001041_20150427_F00100063'
p258
S'8088'
p259
sS'ENG_NW_001393_20150702_F00100056'
p260
S'2761'
p261
sS'ENG_NW_001418_20150709_F00100066'
p262
S'6242'
p263
sS'ENG_DF_000354_20150531_F001000DQ'
p264
S'8463'
p265
sS'ENG_DF_000380_20150713_F001000CT'
p266
S'9192'
p267
sS'ENG_DF_001478_20150113_F001000DC'
p268
S'18715'
p269
sS'ENG_NW_001398_20150710_F0010005D'
p270
S'16338'
p271
sS'ENG_DF_000317_20150528_F001000D6'
p272
S'16470'
p273
sS'ENG_NW_001463_20150720_F0010006Y'
p274
S'4766'
p275
sS'ENG_NW_001387_20150626_F00100050'
p276
S'5447'
p277
sS'ENG_NW_001381_20150623_F0010004U'
p278
S'4884'
p279
sS'ENG_DF_001014_20150426_F00100091'
p280
S'4693'
p281
sS'ENG_NW_001408_20150629_F0010005S'
p282
S'6820'
p283
sS'ENG_DF_001485_20150710_F0010008J'
p284
S'4600'
p285
sS'ENG_NW_001438_20150710_F0010006T'
p286
S'4941'
p287
sS'ENG_NW_001437_20150627_F0010006S'
p288
S'4920'
p289
sS'ENG_NW_001405_20150629_F0010005N'
p290
S'4241'
p291
sS'ENG_DF_001219_20150712_F001000CU'
p292
S'16486'
p293
sS'ENG_DF_001206_20150624_F001000CN'
p294
S'24342'
p295
sS'ENG_DF_000259_20150616_F001000CX'
p296
S'17017'
p297
sS'ENG_NW_001436_20150718_F0010006Q'
p298
S'4877'
p299
sS'ENG_DF_001484_20150427_F001000DN'
p300
S'6133'
p301
sS'ENG_NW_001392_20150428_F00100055'
p302
S'5073'
p303
sS'ENG_DF_001482_20150705_F001000DK'
p304
S'14587'
p305
sS'ENG_DF_000200_20150206_F001000DR'
p306
S'6324'
p307
sS'ENG_DF_000317_20150426_F001000DF'
p308
S'13698'
p309
sS'ENG_NW_001385_20150713_F0010004Y'
p310
S'5699'
p311
sS'ENG_NW_001415_20150714_F00100061'
p312
S'8079'
p313
sS'ENG_NW_001379_20150428_F0010004S'
p314
S'5870'
p315
sS'ENG_NW_001032_20150111_F0010005W'
p316
S'2807'
p317
sS'ENG_DF_001470_20150628_F001000CZ'
p318
S'15752'
p319
sS'ENG_DF_001237_20150307_F0010008T'
p320
S'7920'
p321
sS'ENG_DF_001492_20150530_F0010008B'
p322
S'10277'
p323
sS'ENG_DF_001472_20150527_F001000D3'
p324
S'17014'
p325
sS'ENG_NW_001394_20150716_F00100057'
p326
S'3752'
p327
sS'ENG_DF_001499_20130609_F0010008Q'
p328
S'42912'
p329
sS'ENG_NW_001417_20150709_F00100064'
p330
S'4464'
p331
sS'ENG_NW_001409_20150717_F0010005T'
p332
S'6385'
p333
sS'ENG_DF_001219_20150427_F0010008C'
p334
S'11225'
p335
s.