(dp1
S'SPA_NW_001362_20150430_F0010002J'
p2
S'2691'
p3
sS'SPA_NW_001372_20150728_F00100031'
p4
S'2704'
p5
sS'SPA_NW_001456_20150623_F0010004C'
p6
S'2474'
p7
sS'SPA_DF_001258_20150429_F001000BN'
p8
S'4059'
p9
sS'SPA_DF_000386_20150708_F0010007Z'
p10
S'9822'
p11
sS'SPA_NW_001375_20150727_F00100036'
p12
S'4691'
p13
sS'SPA_DF_001258_20140417_F001000BB'
p14
S'1566'
p15
sS'SPA_DF_001258_20150429_F001000BO'
p16
S'3446'
p17
sS'SPA_NW_001369_20150111_F0010002V'
p18
S'5701'
p19
sS'SPA_NW_001372_20150721_F00100030'
p20
S'4860'
p21
sS'SPA_DF_001258_20140512_F001000BC'
p22
S'2829'
p23
sS'SPA_NW_001458_20150620_F0010004F'
p24
S'2268'
p25
sS'SPA_NW_001446_20150426_F0010003S'
p26
S'2281'
p27
sS'SPA_DF_000404_20150618_F001000AZ'
p28
S'3052'
p29
sS'SPA_DF_000404_20150530_F001000C5'
p30
S'8982'
p31
sS'SPA_DF_001502_20150711_F001000BV'
p32
S'19968'
p33
sS'SPA_DF_001258_20150319_F001000BG'
p34
S'3089'
p35
sS'SPA_DF_001258_20140527_F001000CB'
p36
S'3204'
p37
sS'SPA_DF_000404_20150428_F001000C1'
p38
S'4296'
p39
sS'SPA_DF_000386_20150721_F0010007Y'
p40
S'3892'
p41
sS'SPA_DF_000386_20150602_F0010007X'
p42
S'4307'
p43
sS'SPA_DF_001258_20150705_F001000BS'
p44
S'6227'
p45
sS'SPA_DF_001258_20140502_F001000CA'
p46
S'4489'
p47
sS'SPA_NW_001449_20150627_F0010003X'
p48
S'4970'
p49
sS'SPA_DF_001258_20150703_F001000B9'
p50
S'4778'
p51
sS'SPA_DF_001258_20150707_F001000CF'
p52
S'3888'
p53
sS'SPA_NW_001376_20150602_F00100037'
p54
S'2708'
p55
sS'SPA_DF_000404_20150512_F001000BZ'
p56
S'3215'
p57
sS'SPA_DF_000404_20150109_F001000C4'
p58
S'3697'
p59
sS'SPA_DF_001255_20150626_F00100085'
p60
S'7351'
p61
sS'SPA_NW_001448_20150612_F0010003W'
p62
S'4173'
p63
sS'SPA_NW_001442_20150420_F0010003E'
p64
S'6121'
p65
sS'SPA_DF_000386_20150710_F0010007V'
p66
S'15250'
p67
sS'SPA_NW_001078_20150528_F0010003A'
p68
S'6415'
p69
sS'SPA_DF_001258_20140505_F001000CC'
p70
S'2299'
p71
sS'SPA_NW_001447_20150517_F0010003T'
p72
S'1855'
p73
sS'SPA_DF_000386_20150107_F0010007W'
p74
S'5730'
p75
sS'SPA_NW_001365_20141018_F0010002P'
p76
S'4175'
p77
sS'SPA_DF_001251_20141001_F00100080'
p78
S'4460'
p79
sS'SPA_NW_001366_20150131_F0010002S'
p80
S'1687'
p81
sS'SPA_DF_000386_20150713_F0010007S'
p82
S'10302'
p83
sS'SPA_DF_001258_20150727_F001000BA'
p84
S'4952'
p85
sS'SPA_NW_001113_20150629_F00100042'
p86
S'1844'
p87
sS'SPA_NW_001449_20150626_F0010003Y'
p88
S'2249'
p89
sS'SPA_NW_001367_20150529_F0010002R'
p90
S'2838'
p91
sS'SPA_NW_001113_20150626_F00100043'
p92
S'5063'
p93
sS'SPA_NW_001360_20150501_F0010002F'
p94
S'5230'
p95
sS'SPA_NW_001096_20150615_F0010003P'
p96
S'7633'
p97
sS'SPA_DF_001258_20150501_F001000CH'
p98
S'5628'
p99
sS'SPA_NW_001457_20150620_F0010004K'
p100
S'2561'
p101
sS'SPA_DF_001258_20150622_F001000BR'
p102
S'5120'
p103
sS'SPA_NW_001457_20150623_F0010004D'
p104
S'2544'
p105
sS'SPA_DF_000386_20150528_F0010007Q'
p106
S'8323'
p107
sS'SPA_DF_000386_20150720_F0010007P'
p108
S'6807'
p109
sS'SPA_DF_000404_20141114_F001000B0'
p110
S'2590'
p111
sS'SPA_NW_001443_20150810_F0010003H'
p112
S'2579'
p113
sS'SPA_NW_001458_20150620_F0010004E'
p114
S'2339'
p115
sS'SPA_DF_000386_20150823_F0010007R'
p116
S'21627'
p117
sS'SPA_NW_001367_20150529_F00100035'
p118
S'3223'
p119
sS'SPA_DF_000404_20150429_F001000AV'
p120
S'2511'
p121
sS'SPA_NW_001102_20150602_F0010002D'
p122
S'3791'
p123
sS'SPA_NW_001460_20150602_F0010004L'
p124
S'2986'
p125
sS'SPA_NW_001456_20150707_F0010004B'
p126
S'1869'
p127
sS'SPA_NW_001443_20150810_F0010003G'
p128
S'2371'
p129
sS'SPA_NW_001102_20150706_F0010003C'
p130
S'4408'
p131
sS'SPA_DF_001258_20150429_F001000BP'
p132
S'1538'
p133
sS'SPA_NW_001451_20150603_F00100044'
p134
S'1993'
p135
sS'SPA_DF_001258_20150527_F001000B4'
p136
S'2022'
p137
sS'SPA_DF_001258_20150607_F001000CI'
p138
S'2244'
p139
sS'SPA_NW_001465_20150626_F0010003Z'
p140
S'1288'
p141
sS'SPA_NW_001446_20150425_F0010003R'
p142
S'4698'
p143
sS'SPA_DF_001258_20150615_F001000B5'
p144
S'4482'
p145
sS'SPA_NW_001361_20150429_F0010002G'
p146
S'1903'
p147
sS'SPA_DF_001258_20150429_F001000B1'
p148
S'8740'
p149
sS'SPA_NW_001447_20150507_F0010003U'
p150
S'3388'
p151
sS'SPA_DF_001251_20150701_F00100083'
p152
S'6081'
p153
sS'SPA_DF_001251_20150701_F00100081'
p154
S'4717'
p155
sS'SPA_NW_001360_20150709_F0010002E'
p156
S'4240'
p157
sS'SPA_DF_000404_20150618_F001000AU'
p158
S'722'
p159
sS'SPA_NW_001454_20150621_F0010004G'
p160
S'1754'
p161
sS'SPA_DF_001258_20150425_F001000B2'
p162
S'2858'
p163
sS'SPA_NW_001453_20150623_F00100047'
p164
S'3464'
p165
sS'SPA_DF_000386_20150505_F0010007M'
p166
S'10791'
p167
sS'SPA_DF_001258_20150706_F001000BU'
p168
S'2661'
p169
sS'SPA_DF_001258_20150628_F001000CJ'
p170
S'10734'
p171
sS'SPA_NW_001455_20150622_F0010004H'
p172
S'4044'
p173
sS'SPA_NW_001078_20150602_F00100039'
p174
S'3880'
p175
sS'SPA_NW_001364_20150328_F0010002N'
p176
S'4045'
p177
sS'SPA_DF_000404_20150430_F001000AX'
p178
S'3261'
p179
sS'SPA_NW_001369_20150110_F0010002W'
p180
S'1614'
p181
sS'SPA_NW_001122_20150724_F0010003B'
p182
S'3069'
p183
sS'SPA_NW_001366_20150622_F0010002Q'
p184
S'2326'
p185
sS'SPA_DF_001251_20150626_F00100082'
p186
S'10494'
p187
sS'SPA_NW_001442_20150625_F0010003F'
p188
S'5232'
p189
sS'SPA_DF_000404_20150625_F001000AW'
p190
S'2093'
p191
sS'SPA_DF_000386_20150527_F0010007N'
p192
S'5276'
p193
sS'SPA_DF_000386_20150527_F0010007L'
p194
S'9435'
p195
sS'SPA_DF_001258_20150107_F001000BD'
p196
S'5486'
p197
sS'SPA_NW_001445_20141209_F0010003J'
p198
S'2685'
p199
sS'SPA_NW_001459_20150622_F0010004I'
p200
S'1438'
p201
sS'SPA_DF_001251_20140901_F001000BT'
p202
S'6509'
p203
sS'SPA_DF_000404_20150427_F001000BY'
p204
S'2281'
p205
sS'SPA_NW_001465_20150602_F0010004P'
p206
S'1406'
p207
sS'SPA_DF_000386_20150717_F0010007T'
p208
S'7061'
p209
sS'SPA_DF_000404_20150617_F001000BX'
p210
S'2207'
p211
sS'SPA_NW_001373_20150727_F00100033'
p212
S'2110'
p213
sS'SPA_DF_000404_20150619_F001000AT'
p214
S'696'
p215
sS'SPA_NW_001444_20150729_F0010003Q'
p216
S'3957'
p217
sS'SPA_NW_001374_20150309_F0010003D'
p218
S'1580'
p219
sS'SPA_NW_001368_20150108_F0010002T'
p220
S'8542'
p221
sS'SPA_NW_001364_20150414_F0010002M'
p222
S'2406'
p223
sS'SPA_DF_001258_20150704_F001000BJ'
p224
S'3426'
p225
sS'SPA_NW_001445_20150729_F0010003K'
p226
S'2435'
p227
sS'SPA_NW_001376_20150603_F00100038'
p228
S'4209'
p229
sS'SPA_NW_001371_20150528_F0010002Z'
p230
S'1935'
p231
sS'SPA_DF_001258_20150626_F001000CD'
p232
S'1707'
p233
sS'SPA_NW_001455_20150627_F0010004A'
p234
S'2436'
p235
sS'SPA_DF_000386_20150428_F0010007O'
p236
S'12851'
p237
sS'SPA_NW_001363_20150801_F0010002L'
p238
S'1730'
p239
sS'SPA_NW_001123_20150615_F0010003O'
p240
S'2876'
p241
sS'SPA_NW_001361_20150428_F0010002H'
p242
S'1959'
p243
sS'SPA_DF_000404_20150708_F001000AY'
p244
S'4172'
p245
sS'SPA_DF_000404_20140614_F001000BW'
p246
S'2429'
p247
sS'SPA_NW_001371_20150727_F0010002Y'
p248
S'3179'
p249
sS'SPA_DF_001258_20150118_F001000BF'
p250
S'4964'
p251
sS'SPA_NW_001461_20140602_F0010004O'
p252
S'2477'
p253
sS'SPA_DF_001258_20150623_F001000B7'
p254
S'1151'
p255
sS'SPA_DF_001258_20150627_F001000B8'
p256
S'2040'
p257
sS'SPA_NW_001460_20150624_F0010004M'
p258
S'2677'
p259
sS'SPA_DF_001258_20150711_F001000CG'
p260
S'3416'
p261
sS'SPA_NW_001461_20150630_F0010004N'
p262
S'3665'
p263
sS'SPA_DF_000404_20150427_F001000C0'
p264
S'6397'
p265
sS'SPA_NW_001452_20150523_F00100046'
p266
S'3202'
p267
sS'SPA_NW_001453_20150624_F00100048'
p268
S'4139'
p269
sS'SPA_DF_000386_20150628_F0010007U'
p270
S'8450'
p271
sS'SPA_NW_001370_20150109_F0010002X'
p272
S'1702'
p273
sS'SPA_NW_001373_20150802_F00100032'
p274
S'3643'
p275
sS'SPA_DF_001258_20140123_F001000BK'
p276
S'3423'
p277
sS'SPA_DF_001258_20140123_F001000BL'
p278
S'1969'
p279
sS'SPA_NW_001075_20150615_F0010003L'
p280
S'1966'
p281
sS'SPA_NW_001374_20150708_F00100034'
p282
S'4338'
p283
sS'SPA_NW_001459_20150620_F0010004J'
p284
S'4567'
p285
sS'SPA_DF_000404_20150118_F001000C2'
p286
S'3798'
p287
sS'SPA_DF_000404_20150628_F001000C3'
p288
S'1155'
p289
sS'SPA_DF_001258_20150425_F001000BH'
p290
S'3061'
p291
sS'SPA_DF_001258_20140427_F001000C9'
p292
S'4294'
p293
sS'SPA_NW_001363_20150804_F0010002K'
p294
S'1672'
p295
sS'SPA_NW_001448_20150522_F0010003V'
p296
S'1851'
p297
sS'SPA_DF_001258_20150112_F001000BE'
p298
S'5065'
p299
sS'SPA_DF_001258_20150627_F001000C6'
p300
S'5230'
p301
sS'SPA_DF_001258_20150109_F001000BM'
p302
S'4557'
p303
sS'SPA_NW_001365_20150324_F0010002O'
p304
S'1944'
p305
sS'SPA_NW_001444_20150717_F0010003I'
p306
S'4271'
p307
sS'SPA_DF_001258_20150619_F001000CE'
p308
S'7795'
p309
sS'SPA_DF_001258_20150620_F001000B6'
p310
S'2304'
p311
sS'SPA_DF_001258_20150512_F001000B3'
p312
S'1957'
p313
sS'SPA_DF_001258_20150602_F001000BQ'
p314
S'4807'
p315
sS'SPA_NW_001362_20150527_F0010002I'
p316
S'8423'
p317
sS'SPA_DF_001258_20140408_F001000C8'
p318
S'4038'
p319
sS'SPA_NW_001454_20150719_F00100049'
p320
S'2869'
p321
sS'SPA_NW_001450_20150626_F00100040'
p322
S'1391'
p323
sS'SPA_NW_001450_20150626_F00100041'
p324
S'1377'
p325
sS'SPA_DF_001258_20150629_F001000C7'
p326
S'9511'
p327
sS'SPA_NW_001375_20150622_F0010003M'
p328
S'7310'
p329
sS'SPA_NW_001451_20150625_F00100045'
p330
S'5601'
p331
sS'SPA_DF_001258_20150704_F001000BI'
p332
S'3955'
p333
sS'SPA_NW_001117_20150613_F0010003N'
p334
S'2537'
p335
s.